target datalayout = "e-m:e-p270:32:32-p271:32:32-p272:64:64-i64:64-i128:128-f80:128-n8:16:32:64-S128"
target triple = "x86_64-pc-linux-gnu"

%struct.KangarooTwelve_Instance = type { %struct.KeccakWidth1600_12rounds_SpongeInstanceStruct, [4 x i8], %struct.KeccakWidth1600_12rounds_SpongeInstanceStruct, i64, i64, i32, i32 }
%struct.KeccakWidth1600_12rounds_SpongeInstanceStruct = type { [200 x i8], i32, i32, i32 }

; Function Attrs: nounwind uwtable
define dso_local i32 @KangarooTwelve_Initialize(ptr noundef %0, i64 noundef %1) #0 {
  %3 = alloca ptr, align 8
  %4 = alloca i64, align 8
  store ptr %0, ptr %3, align 8
  store i64 %1, ptr %4, align 8
  %5 = load i64, ptr %4, align 8
  %6 = load ptr, ptr %3, align 8
  %7 = getelementptr inbounds nuw %struct.KangarooTwelve_Instance, ptr %6, i32 0, i32 3
  store i64 %5, ptr %7, align 8
  %8 = load ptr, ptr %3, align 8
  %9 = getelementptr inbounds nuw %struct.KangarooTwelve_Instance, ptr %8, i32 0, i32 5
  store i32 0, ptr %9, align 8
  %10 = load ptr, ptr %3, align 8
  %11 = getelementptr inbounds nuw %struct.KangarooTwelve_Instance, ptr %10, i32 0, i32 4
  store i64 0, ptr %11, align 8
  %12 = load ptr, ptr %3, align 8
  %13 = getelementptr inbounds nuw %struct.KangarooTwelve_Instance, ptr %12, i32 0, i32 6
  store i32 1, ptr %13, align 4
  %14 = load ptr, ptr %3, align 8
  %15 = getelementptr inbounds nuw %struct.KangarooTwelve_Instance, ptr %14, i32 0, i32 2
  %16 = call i32 @KeccakWidth1600_12rounds_SpongeInitialize(ptr noundef %15, i32 noundef 1344, i32 noundef 256)
  ret i32 %16
}