; Function Attrs: nounwind uwtable
define dso_local i32 @KangarooTwelve_Initialize(ptr noundef initializes((432, 456)) %0, i64 noundef %1) local_unnamed_addr #0 {
  %3 = getelementptr inbounds nuw i8, ptr %0, i64 432
  store i64 %1, ptr %3, align 8
  %4 = getelementptr inbounds nuw i8, ptr %0, i64 448
  store i32 0, ptr %4, align 8
  %5 = getelementptr inbounds nuw i8, ptr %0, i64 440
  store i64 0, ptr %5, align 8
  %6 = getelementptr inbounds nuw i8, ptr %0, i64 452
  store i32 1, ptr %6, align 4
  %7 = getelementptr inbounds nuw i8, ptr %0, i64 216
  %8 = tail call i32 @KeccakWidth1600_12rounds_SpongeInitialize(ptr noundef nonnull %7, i32 noundef 1344, i32 noundef 256) #4
  ret i32 %8
}